target datalayout = "e-m:e-p270:32:32-p271:32:32-p272:64:64-i64:64-i128:128-f80:128-n8:16:32:64-S128"
target triple = "x86_64-pc-linux-gnu"

%struct.expert_field = type { i32, i32 }
%struct._packet_info = type { ptr, ptr, i32, i32, %struct.nstime_t, %struct.nstime_t, %struct.nstime_t, i8, ptr, ptr, ptr, ptr, %struct._address, %struct._address, %struct._address, %struct._address, %struct._address, %struct._address, i32, ptr, i8, [3 x i8], %struct.anon, i32, i32, i32, i32, ptr, i8, ptr, ptr, i16, i16, i32, i32, i16, i32, i32, ptr, ptr, ptr, i8, i8, i16, i16, i16, i32, i16, i16, ptr, ptr, ptr, ptr, ptr, i32, i32 }
%struct.nstime_t = type { i64, i32 }
%struct._address = type { i32, i32, ptr, ptr }
%struct.anon = type { i8, [3 x i8] }

@hf_cmgl_msg_pdu = internal global i32 0, align 4
@ei_empty_hex = internal global %struct.expert_field zeroinitializer, align 4
@ei_invalid_hex = internal global %struct.expert_field zeroinitializer, align 4
@ei_odd_len = internal global %struct.expert_field zeroinitializer, align 4
@gsm_sms_handle = internal global ptr null, align 8
@g_ascii_table = external constant ptr, align 8
@.str.627 = private unnamed_addr constant [6 x i8] c"%2hhx\00", align 1
@.str.628 = private unnamed_addr constant [16 x i8] c"GSM SMS payload\00", align 1

; Function Attrs: null_pointer_is_valid sspstrong uwtable
define internal zeroext i1 @dissect_cmgl_data_part(ptr noundef %0, ptr noundef %1, ptr noundef %2, i32 noundef %3, i32 noundef %4, i16 noundef zeroext %5, ptr noundef %6, i32 noundef %7, i32 noundef %8, ptr noundef %9) #0 {
  %11 = alloca i1, align 1
  %12 = alloca ptr, align 8
  %13 = alloca ptr, align 8
  %14 = alloca ptr, align 8
  %15 = alloca i32, align 4
  %16 = alloca i32, align 4
  %17 = alloca i16, align 2
  %18 = alloca ptr, align 8
  %19 = alloca i32, align 4
  %20 = alloca i32, align 4
  %21 = alloca ptr, align 8
  %22 = alloca ptr, align 8
  %23 = alloca i32, align 4
  %24 = alloca i32, align 4
  %25 = alloca i32, align 4
  %26 = alloca ptr, align 8
  %27 = alloca ptr, align 8
  %28 = alloca i32, align 4
  %29 = alloca ptr, align 8
  %30 = alloca i32, align 4
  store ptr %0, ptr %12, align 8
  store ptr %1, ptr %13, align 8
  store ptr %2, ptr %14, align 8
  store i32 %3, ptr %15, align 4
  store i32 %4, ptr %16, align 4
  store i16 %5, ptr %17, align 2
  store ptr %6, ptr %18, align 8
  store i32 %7, ptr %19, align 4
  store i32 %8, ptr %20, align 4
  store ptr %9, ptr %21, align 8
  call void @llvm.lifetime.start.p0(i64 8, ptr %22) #12
  call void @llvm.lifetime.start.p0(i64 4, ptr %23) #12
  call void @llvm.lifetime.start.p0(i64 4, ptr %24) #12
  call void @llvm.lifetime.start.p0(i64 4, ptr %25) #12
  call void @llvm.lifetime.start.p0(i64 8, ptr %26) #12
  call void @llvm.lifetime.start.p0(i64 8, ptr %27) #12
  store ptr null, ptr %27, align 8
  %31 = load i32, ptr %16, align 4
  %32 = icmp eq i32 %31, 1
  br i1 %32, label %33, label %37

33:                                               ; preds = %10
  %34 = load i16, ptr %17, align 2
  %35 = zext i16 %34 to i32
  %36 = icmp eq i32 %35, 58
  br i1 %36, label %38, label %37

37:                                               ; preds = %33, %10
  store i1 false, ptr %11, align 1
  store i32 1, ptr %28, align 4
  br label %151

38:                                               ; preds = %33
  %39 = load ptr, ptr %14, align 8
  %40 = load i32, ptr @hf_cmgl_msg_pdu, align 4
  %41 = load ptr, ptr %12, align 8
  %42 = load i32, ptr %15, align 4
  %43 = load i32, ptr %20, align 4
  %44 = call ptr @proto_tree_add_item(ptr noundef %39, i32 noundef %40, ptr noundef %41, i32 noundef %42, i32 noundef %43, i32 noundef 0)
  store ptr %44, ptr %22, align 8
  %45 = load i32, ptr %20, align 4
  store i32 %45, ptr %23, align 4
  %46 = load i32, ptr %23, align 4
  %47 = srem i32 %46, 2
  %48 = icmp eq i32 %47, 1
  br i1 %48, label %49, label %53

49:                                               ; preds = %38
  %50 = load ptr, ptr %13, align 8
  %51 = load ptr, ptr %22, align 8
  %52 = call ptr @expert_add_info(ptr noundef %50, ptr noundef %51, ptr noundef @ei_odd_len)
  store i1 true, ptr %11, align 1
  store i32 1, ptr %28, align 4
  br label %151

53:                                               ; preds = %38
  %54 = load i32, ptr %23, align 4
  %55 = icmp slt i32 %54, 1
  br i1 %55, label %56, label %60

56:                                               ; preds = %53
  %57 = load ptr, ptr %13, align 8
  %58 = load ptr, ptr %22, align 8
  %59 = call ptr @expert_add_info(ptr noundef %57, ptr noundef %58, ptr noundef @ei_empty_hex)
  store i1 true, ptr %11, align 1
  store i32 1, ptr %28, align 4
  br label %151

60:                                               ; preds = %53
  %61 = load i32, ptr %23, align 4
  %62 = sdiv i32 %61, 2
  store i32 %62, ptr %24, align 4
  %63 = load ptr, ptr %13, align 8
  %64 = getelementptr inbounds nuw %struct._packet_info, ptr %63, i32 0, i32 51
  %65 = load ptr, ptr %64, align 8
  %66 = load i32, ptr %24, align 4
  %67 = add i32 %66, 1
  %68 = icmp sle i32 %67, 0
  br i1 %68, label %75, label %69

69:                                               ; preds = %60
  %70 = load i32, ptr %24, align 4
  %71 = add i32 %70, 1
  %72 = sext i32 %71 to i64
  %73 = udiv i64 9223372036854775807, %72
  %74 = icmp ugt i64 1, %73
  br i1 %74, label %75, label %76

75:                                               ; preds = %69, %60
  br label %81

76:                                               ; preds = %69
  %77 = load i32, ptr %24, align 4
  %78 = add i32 %77, 1
  %79 = sext i32 %78 to i64
  %80 = mul i64 1, %79
  br label %81

81:                                               ; preds = %76, %75
  %82 = phi i64 [ 0, %75 ], [ %80, %76 ]
  %83 = call noalias ptr @wmem_alloc0(ptr noundef %65, i64 noundef %82) #13
  store ptr %83, ptr %26, align 8
  call void @llvm.lifetime.start.p0(i64 8, ptr %29) #12
  %84 = load ptr, ptr %18, align 8
  store ptr %84, ptr %29, align 8
  %85 = load ptr, ptr %29, align 8
  %86 = getelementptr i8, ptr %85, i64 16
  store ptr %86, ptr %29, align 8
  store i32 8, ptr %25, align 4
  br label %87

87:                                               ; preds = %126, %81
  %88 = load i32, ptr %25, align 4
  %89 = load i32, ptr %24, align 4
  %90 = icmp slt i32 %88, %89
  br i1 %90, label %91, label %129

91:                                               ; preds = %87
  %92 = load ptr, ptr @g_ascii_table, align 8
  %93 = load ptr, ptr %29, align 8
  %94 = load i8, ptr %93, align 1
  %95 = zext i8 %94 to i64
  %96 = getelementptr i16, ptr %92, i64 %95
  %97 = load i16, ptr %96, align 2
  %98 = zext i16 %97 to i32
  %99 = and i32 %98, 1024
  %100 = icmp ne i32 %99, 0
  br i1 %100, label %101, label %112

101:                                              ; preds = %91
  %102 = load ptr, ptr @g_ascii_table, align 8
  %103 = load ptr, ptr %29, align 8
  %104 = getelementptr i8, ptr %103, i64 1
  %105 = load i8, ptr %104, align 1
  %106 = zext i8 %105 to i64
  %107 = getelementptr i16, ptr %102, i64 %106
  %108 = load i16, ptr %107, align 2
  %109 = zext i16 %108 to i32
  %110 = and i32 %109, 1024
  %111 = icmp ne i32 %110, 0
  br i1 %111, label %116, label %112

112:                                              ; preds = %101, %91
  %113 = load ptr, ptr %13, align 8
  %114 = load ptr, ptr %22, align 8
  %115 = call ptr @expert_add_info(ptr noundef %113, ptr noundef %114, ptr noundef @ei_invalid_hex)
  store i1 true, ptr %11, align 1
  store i32 1, ptr %28, align 4
  br label %150

116:                                              ; preds = %101
  %117 = load ptr, ptr %29, align 8
  %118 = load ptr, ptr %26, align 8
  %119 = load i32, ptr %25, align 4
  %120 = sub i32 %119, 8
  %121 = sext i32 %120 to i64
  %122 = getelementptr i8, ptr %118, i64 %121
  %123 = call i32 (ptr, ptr, ...) @__isoc99_sscanf(ptr noundef %117, ptr noundef @.str.627, ptr noundef %122) #12
  %124 = load ptr, ptr %29, align 8
  %125 = getelementptr i8, ptr %124, i64 2
  store ptr %125, ptr %29, align 8
  br label %126

126:                                              ; preds = %116
  %127 = load i32, ptr %25, align 4
  %128 = add i32 %127, 1
  store i32 %128, ptr %25, align 4
  br label %87, !llvm.loop !20

129:                                              ; preds = %87
  %130 = load ptr, ptr %12, align 8
  %131 = load ptr, ptr %26, align 8
  %132 = load i32, ptr %24, align 4
  %133 = load i32, ptr %24, align 4
  %134 = call ptr @tvb_new_child_real_data(ptr noundef %130, ptr noundef %131, i32 noundef %132, i32 noundef %133)
  store ptr %134, ptr %27, align 8
  %135 = load ptr, ptr %13, align 8
  %136 = load ptr, ptr %27, align 8
  call void @add_new_data_source(ptr noundef %135, ptr noundef %136, ptr noundef @.str.628)
  call void @llvm.lifetime.start.p0(i64 4, ptr %30) #12
  %137 = load ptr, ptr %13, align 8
  %138 = getelementptr inbounds nuw %struct._packet_info, ptr %137, i32 0, i32 37
  %139 = load i32, ptr %138, align 4
  store i32 %139, ptr %30, align 4
  %140 = load ptr, ptr %13, align 8
  %141 = getelementptr inbounds nuw %struct._packet_info, ptr %140, i32 0, i32 37
  store i32 0, ptr %141, align 4
  %142 = load ptr, ptr @gsm_sms_handle, align 8
  %143 = load ptr, ptr %27, align 8
  %144 = load ptr, ptr %13, align 8
  %145 = load ptr, ptr %14, align 8
  %146 = call i32 @call_dissector_only(ptr noundef %142, ptr noundef %143, ptr noundef %144, ptr noundef %145, ptr noundef null)
  %147 = load i32, ptr %30, align 4
  %148 = load ptr, ptr %13, align 8
  %149 = getelementptr inbounds nuw %struct._packet_info, ptr %148, i32 0, i32 37
  store i32 %147, ptr %149, align 4
  store i1 true, ptr %11, align 1
  store i32 1, ptr %28, align 4
  call void @llvm.lifetime.end.p0(i64 4, ptr %30) #12
  br label %150

150:                                              ; preds = %129, %112
  call void @llvm.lifetime.end.p0(i64 8, ptr %29) #12
  br label %151

151:                                              ; preds = %150, %56, %49, %37
  call void @llvm.lifetime.end.p0(i64 8, ptr %27) #12
  call void @llvm.lifetime.end.p0(i64 8, ptr %26) #12
  call void @llvm.lifetime.end.p0(i64 4, ptr %25) #12
  call void @llvm.lifetime.end.p0(i64 4, ptr %24) #12
  call void @llvm.lifetime.end.p0(i64 4, ptr %23) #12
  call void @llvm.lifetime.end.p0(i64 8, ptr %22) #12
  %152 = load i1, ptr %11, align 1
  ret i1 %152
}