; Function Attrs: null_pointer_is_valid sspstrong uwtable
define internal noundef zeroext i1 @dissect_cmgl_data_part(ptr noundef %0, ptr noundef %1, ptr noundef %2, i32 noundef %3, i32 noundef %4, i16 noundef zeroext %5, ptr noundef readonly captures(none) %6, i32 %7, i32 noundef %8, ptr readnone captures(none) %9) #0 {
  %11 = icmp eq i32 %4, 1
  %12 = icmp eq i16 %5, 58
  %or.cond = and i1 %11, %12
  br i1 %or.cond, label %13, label %57

13:                                               ; preds = %10
  %14 = load i32, ptr @hf_cmgl_msg_pdu, align 4
  %15 = tail call ptr @proto_tree_add_item(ptr noundef %2, i32 noundef %14, ptr noundef %0, i32 noundef %3, i32 noundef %8, i32 noundef 0)
  %16 = and i32 %8, -2147483647
  %17 = icmp eq i32 %16, 1
  br i1 %17, label %18, label %20

18:                                               ; preds = %13
  %19 = tail call ptr @expert_add_info(ptr noundef %1, ptr noundef %15, ptr noundef nonnull @ei_odd_len)
  br label %57

20:                                               ; preds = %13
  %21 = icmp slt i32 %8, 1
  br i1 %21, label %22, label %24

22:                                               ; preds = %20
  %23 = tail call ptr @expert_add_info(ptr noundef %1, ptr noundef %15, ptr noundef nonnull @ei_empty_hex)
  br label %57

24:                                               ; preds = %20
  %25 = lshr i32 %8, 1
  %26 = getelementptr inbounds nuw i8, ptr %1, i64 408
  %27 = load ptr, ptr %26, align 8
  %28 = add nuw nsw i32 %25, 1
  %29 = zext nneg i32 %28 to i64
  %30 = tail call noalias ptr @wmem_alloc0(ptr noundef %27, i64 noundef %29) #12
  %invariant.gep = getelementptr i8, ptr %30, i64 -8
  %31 = icmp samesign ugt i32 %8, 17
  br i1 %31, label %.lr.ph, label %._crit_edge

.lr.ph:                                           ; preds = %24
  %32 = getelementptr i8, ptr %6, i64 16
  %33 = load ptr, ptr @g_ascii_table, align 8
  %wide.trip.count = zext nneg i32 %25 to i64
  br label %34

34:                                               ; preds = %.lr.ph, %49
  %indvars.iv = phi i64 [ 8, %.lr.ph ], [ %indvars.iv.next, %49 ]
  %.04653 = phi ptr [ %32, %.lr.ph ], [ %51, %49 ]
  %35 = load i8, ptr %.04653, align 1
  %36 = zext i8 %35 to i64
  %37 = getelementptr i16, ptr %33, i64 %36
  %38 = load i16, ptr %37, align 2
  %39 = and i16 %38, 1024
  %.not = icmp eq i16 %39, 0
  br i1 %.not, label %47, label %40

40:                                               ; preds = %34
  %41 = getelementptr i8, ptr %.04653, i64 1
  %42 = load i8, ptr %41, align 1
  %43 = zext i8 %42 to i64
  %44 = getelementptr i16, ptr %33, i64 %43
  %45 = load i16, ptr %44, align 2
  %46 = and i16 %45, 1024
  %.not51 = icmp eq i16 %46, 0
  br i1 %.not51, label %47, label %49

47:                                               ; preds = %40, %34
  %48 = tail call ptr @expert_add_info(ptr noundef %1, ptr noundef %15, ptr noundef nonnull @ei_invalid_hex)
  br label %57

49:                                               ; preds = %40
  %gep = getelementptr i8, ptr %invariant.gep, i64 %indvars.iv
  %50 = tail call i32 (ptr, ptr, ...) @__isoc99_sscanf(ptr noundef %.04653, ptr noundef nonnull @.str.627, ptr noundef %gep) #13
  %51 = getelementptr i8, ptr %.04653, i64 2
  %indvars.iv.next = add nuw nsw i64 %indvars.iv, 1
  %exitcond.not = icmp eq i64 %indvars.iv.next, %wide.trip.count
  br i1 %exitcond.not, label %._crit_edge, label %34, !llvm.loop !152

._crit_edge:                                      ; preds = %49, %24
  %52 = tail call ptr @tvb_new_child_real_data(ptr noundef %0, ptr noundef %30, i32 noundef %25, i32 noundef %25)
  tail call void @add_new_data_source(ptr noundef %1, ptr noundef %52, ptr noundef nonnull @.str.628)
  %53 = getelementptr inbounds nuw i8, ptr %1, i64 348
  %54 = load i32, ptr %53, align 4
  store i32 0, ptr %53, align 4
  %55 = load ptr, ptr @gsm_sms_handle, align 8
  %56 = tail call i32 @call_dissector_only(ptr noundef %55, ptr noundef %52, ptr noundef %1, ptr noundef %2, ptr noundef null)
  store i32 %54, ptr %53, align 4
  br label %57

57:                                               ; preds = %47, %._crit_edge, %10, %22, %18
  ret i1 %or.cond
}